target datalayout = "e-m:e-p270:32:32-p271:32:32-p272:64:64-i64:64-i128:128-f80:128-n8:16:32:64-S128"
target triple = "x86_64-pc-linux-gnu"

%struct.SN_env = type { ptr, i32, i32, i32, i32, i32, ptr, ptr }

@g_v = internal constant [4 x i8] c"QA\10\01", align 1
@s_70 = internal constant [4 x i8] c"\CE\B9\CE\BA", align 1
@s_71 = internal constant [4 x i8] c"\CE\B9\CE\BA", align 1

; Function Attrs: nounwind uwtable
define internal i32 @r_step4(ptr noundef %0) #0 {
  %2 = alloca i32, align 4
  %3 = alloca ptr, align 8
  %4 = alloca i32, align 4
  %5 = alloca i32, align 4
  %6 = alloca i32, align 4
  %7 = alloca i32, align 4
  %8 = alloca i32, align 4
  store ptr %0, ptr %3, align 8
  %9 = load ptr, ptr %3, align 8
  %10 = getelementptr inbounds nuw %struct.SN_env, ptr %9, i32 0, i32 1
  %11 = load i32, ptr %10, align 8
  %12 = load ptr, ptr %3, align 8
  %13 = getelementptr inbounds nuw %struct.SN_env, ptr %12, i32 0, i32 5
  store i32 %11, ptr %13, align 8
  %14 = load ptr, ptr %3, align 8
  %15 = call i32 @find_among_b(ptr noundef %14, ptr noundef @a_33, i32 noundef 4)
  %16 = icmp ne i32 %15, 0
  br i1 %16, label %18, label %17

17:                                               ; preds = %1
  store i32 0, ptr %2, align 4
  br label %116

18:                                               ; preds = %1
  %19 = load ptr, ptr %3, align 8
  %20 = getelementptr inbounds nuw %struct.SN_env, ptr %19, i32 0, i32 1
  %21 = load i32, ptr %20, align 8
  %22 = load ptr, ptr %3, align 8
  %23 = getelementptr inbounds nuw %struct.SN_env, ptr %22, i32 0, i32 4
  store i32 %21, ptr %23, align 4
  call void @llvm.lifetime.start.p0(i64 4, ptr %4) #3
  %24 = load ptr, ptr %3, align 8
  %25 = call i32 @slice_del(ptr noundef %24)
  store i32 %25, ptr %4, align 4
  %26 = load i32, ptr %4, align 4
  %27 = icmp slt i32 %26, 0
  br i1 %27, label %28, label %30

28:                                               ; preds = %18
  %29 = load i32, ptr %4, align 4
  store i32 %29, ptr %2, align 4
  store i32 1, ptr %5, align 4
  br label %31

30:                                               ; preds = %18
  store i32 0, ptr %5, align 4
  br label %31

31:                                               ; preds = %30, %28
  call void @llvm.lifetime.end.p0(i64 4, ptr %4) #3
  %32 = load i32, ptr %5, align 4
  switch i32 %32, label %118 [
    i32 0, label %33
    i32 1, label %116
  ]

33:                                               ; preds = %31
  %34 = load ptr, ptr %3, align 8
  %35 = getelementptr inbounds nuw %struct.SN_env, ptr %34, i32 0, i32 7
  %36 = load ptr, ptr %35, align 8
  %37 = getelementptr inbounds i32, ptr %36, i64 0
  store i32 0, ptr %37, align 4
  call void @llvm.lifetime.start.p0(i64 4, ptr %6) #3
  %38 = load ptr, ptr %3, align 8
  %39 = getelementptr inbounds nuw %struct.SN_env, ptr %38, i32 0, i32 2
  %40 = load i32, ptr %39, align 4
  %41 = load ptr, ptr %3, align 8
  %42 = getelementptr inbounds nuw %struct.SN_env, ptr %41, i32 0, i32 1
  %43 = load i32, ptr %42, align 8
  %44 = sub i32 %40, %43
  store i32 %44, ptr %6, align 4
  %45 = load ptr, ptr %3, align 8
  %46 = getelementptr inbounds nuw %struct.SN_env, ptr %45, i32 0, i32 1
  %47 = load i32, ptr %46, align 8
  %48 = load ptr, ptr %3, align 8
  %49 = getelementptr inbounds nuw %struct.SN_env, ptr %48, i32 0, i32 5
  store i32 %47, ptr %49, align 8
  %50 = load ptr, ptr %3, align 8
  %51 = getelementptr inbounds nuw %struct.SN_env, ptr %50, i32 0, i32 1
  %52 = load i32, ptr %51, align 8
  %53 = load ptr, ptr %3, align 8
  %54 = getelementptr inbounds nuw %struct.SN_env, ptr %53, i32 0, i32 4
  store i32 %52, ptr %54, align 4
  %55 = load ptr, ptr %3, align 8
  %56 = call i32 @in_grouping_b_U(ptr noundef %55, ptr noundef @g_v, i32 noundef 945, i32 noundef 969, i32 noundef 0)
  %57 = icmp ne i32 %56, 0
  br i1 %57, label %58, label %59

58:                                               ; preds = %33
  br label %70

59:                                               ; preds = %33
  call void @llvm.lifetime.start.p0(i64 4, ptr %7) #3
  %60 = load ptr, ptr %3, align 8
  %61 = call i32 @slice_from_s(ptr noundef %60, i32 noundef 4, ptr noundef @s_70)
  store i32 %61, ptr %7, align 4
  %62 = load i32, ptr %7, align 4
  %63 = icmp slt i32 %62, 0
  br i1 %63, label %64, label %66

64:                                               ; preds = %59
  %65 = load i32, ptr %7, align 4
  store i32 %65, ptr %2, align 4
  store i32 1, ptr %5, align 4
  br label %67

66:                                               ; preds = %59
  store i32 0, ptr %5, align 4
  br label %67

67:                                               ; preds = %66, %64
  call void @llvm.lifetime.end.p0(i64 4, ptr %7) #3
  %68 = load i32, ptr %5, align 4
  switch i32 %68, label %83 [
    i32 0, label %69
  ]

69:                                               ; preds = %67
  store i32 3, ptr %5, align 4
  br label %83

70:                                               ; preds = %58
  %71 = load ptr, ptr %3, align 8
  %72 = getelementptr inbounds nuw %struct.SN_env, ptr %71, i32 0, i32 2
  %73 = load i32, ptr %72, align 4
  %74 = load i32, ptr %6, align 4
  %75 = sub i32 %73, %74
  %76 = load ptr, ptr %3, align 8
  %77 = getelementptr inbounds nuw %struct.SN_env, ptr %76, i32 0, i32 1
  store i32 %75, ptr %77, align 8
  %78 = load ptr, ptr %3, align 8
  %79 = getelementptr inbounds nuw %struct.SN_env, ptr %78, i32 0, i32 1
  %80 = load i32, ptr %79, align 8
  %81 = load ptr, ptr %3, align 8
  %82 = getelementptr inbounds nuw %struct.SN_env, ptr %81, i32 0, i32 5
  store i32 %80, ptr %82, align 8
  store i32 0, ptr %5, align 4
  br label %83

83:                                               ; preds = %69, %70, %67
  call void @llvm.lifetime.end.p0(i64 4, ptr %6) #3
  %84 = load i32, ptr %5, align 4
  switch i32 %84, label %118 [
    i32 0, label %85
    i32 1, label %116
    i32 3, label %86
  ]

85:                                               ; preds = %83
  br label %86

86:                                               ; preds = %85, %83
  %87 = load ptr, ptr %3, align 8
  %88 = getelementptr inbounds nuw %struct.SN_env, ptr %87, i32 0, i32 1
  %89 = load i32, ptr %88, align 8
  %90 = load ptr, ptr %3, align 8
  %91 = getelementptr inbounds nuw %struct.SN_env, ptr %90, i32 0, i32 4
  store i32 %89, ptr %91, align 4
  %92 = load ptr, ptr %3, align 8
  %93 = call i32 @find_among_b(ptr noundef %92, ptr noundef @a_34, i32 noundef 36)
  %94 = icmp ne i32 %93, 0
  br i1 %94, label %96, label %95

95:                                               ; preds = %86
  store i32 0, ptr %2, align 4
  br label %116

96:                                               ; preds = %86
  %97 = load ptr, ptr %3, align 8
  %98 = getelementptr inbounds nuw %struct.SN_env, ptr %97, i32 0, i32 1
  %99 = load i32, ptr %98, align 8
  %100 = load ptr, ptr %3, align 8
  %101 = getelementptr inbounds nuw %struct.SN_env, ptr %100, i32 0, i32 3
  %102 = load i32, ptr %101, align 8
  %103 = icmp sgt i32 %99, %102
  br i1 %103, label %104, label %105

104:                                              ; preds = %96
  store i32 0, ptr %2, align 4
  br label %116

105:                                              ; preds = %96
  call void @llvm.lifetime.start.p0(i64 4, ptr %8) #3
  %106 = load ptr, ptr %3, align 8
  %107 = call i32 @slice_from_s(ptr noundef %106, i32 noundef 4, ptr noundef @s_71)
  store i32 %107, ptr %8, align 4
  %108 = load i32, ptr %8, align 4
  %109 = icmp slt i32 %108, 0
  br i1 %109, label %110, label %112

110:                                              ; preds = %105
  %111 = load i32, ptr %8, align 4
  store i32 %111, ptr %2, align 4
  store i32 1, ptr %5, align 4
  br label %113

112:                                              ; preds = %105
  store i32 0, ptr %5, align 4
  br label %113

113:                                              ; preds = %112, %110
  call void @llvm.lifetime.end.p0(i64 4, ptr %8) #3
  %114 = load i32, ptr %5, align 4
  switch i32 %114, label %118 [
    i32 0, label %115
    i32 1, label %116
  ]

115:                                              ; preds = %113
  store i32 1, ptr %2, align 4
  br label %116

116:                                              ; preds = %115, %113, %104, %95, %83, %31, %17
  %117 = load i32, ptr %2, align 4
  ret i32 %117

118:                                              ; preds = %113, %83, %31
  unreachable
}