; Function Attrs: nounwind uwtable
define internal fastcc i32 @r_step4(ptr noundef initializes((24, 28)) %0) unnamed_addr #0 {
  %2 = getelementptr inbounds nuw i8, ptr %0, i64 8
  %3 = load i32, ptr %2, align 8
  %4 = getelementptr inbounds nuw i8, ptr %0, i64 24
  store i32 %3, ptr %4, align 8
  %5 = tail call i32 @find_among_b(ptr noundef %0, ptr noundef nonnull @a_33, i32 noundef 4) #2
  %.not = icmp eq i32 %5, 0
  br i1 %.not, label %34, label %6

6:                                                ; preds = %1
  %7 = load i32, ptr %2, align 8
  %8 = getelementptr inbounds nuw i8, ptr %0, i64 20
  store i32 %7, ptr %8, align 4
  %9 = tail call i32 @slice_del(ptr noundef nonnull %0) #2
  %10 = icmp sgt i32 %9, -1
  br i1 %10, label %11, label %34

11:                                               ; preds = %6
  %12 = getelementptr inbounds nuw i8, ptr %0, i64 40
  %13 = load ptr, ptr %12, align 8
  store i32 0, ptr %13, align 4
  %14 = getelementptr inbounds nuw i8, ptr %0, i64 12
  %15 = load i32, ptr %14, align 4
  %16 = load i32, ptr %2, align 8
  store i32 %16, ptr %4, align 8
  store i32 %16, ptr %8, align 4
  %17 = tail call i32 @in_grouping_b_U(ptr noundef nonnull %0, ptr noundef nonnull @g_v, i32 noundef 945, i32 noundef 969, i32 noundef 0) #2
  %.not42 = icmp eq i32 %17, 0
  br i1 %.not42, label %20, label %.thread

.thread:                                          ; preds = %11
  %.neg = sub i32 %16, %15
  %18 = load i32, ptr %14, align 4
  %19 = add i32 %18, %.neg
  store i32 %19, ptr %2, align 8
  store i32 %19, ptr %4, align 8
  br label %23

20:                                               ; preds = %11
  %21 = tail call i32 @slice_from_s(ptr noundef nonnull %0, i32 noundef 4, ptr noundef nonnull @s_70) #2
  %22 = icmp slt i32 %21, 0
  br i1 %22, label %34, label %._crit_edge

._crit_edge:                                      ; preds = %20
  %.pre = load i32, ptr %2, align 8
  br label %23

23:                                               ; preds = %._crit_edge, %.thread
  %24 = phi i32 [ %.pre, %._crit_edge ], [ %19, %.thread ]
  store i32 %24, ptr %8, align 4
  %25 = tail call i32 @find_among_b(ptr noundef nonnull %0, ptr noundef nonnull @a_34, i32 noundef 36) #2
  %.not43 = icmp eq i32 %25, 0
  br i1 %.not43, label %34, label %26

26:                                               ; preds = %23
  %27 = load i32, ptr %2, align 8
  %28 = getelementptr inbounds nuw i8, ptr %0, i64 16
  %29 = load i32, ptr %28, align 8
  %30 = icmp sgt i32 %27, %29
  br i1 %30, label %34, label %31

31:                                               ; preds = %26
  %32 = tail call i32 @slice_from_s(ptr noundef nonnull %0, i32 noundef 4, ptr noundef nonnull @s_71) #2
  %33 = icmp sgt i32 %32, -1
  %spec.select = select i1 %33, i32 1, i32 %32
  br label %34

34:                                               ; preds = %31, %6, %26, %23, %20, %1
  %.0 = phi i32 [ %9, %6 ], [ %21, %20 ], [ 0, %1 ], [ 0, %23 ], [ 0, %26 ], [ %spec.select, %31 ]
  ret i32 %.0
}